target datalayout = "e-m:e-p270:32:32-p271:32:32-p272:64:64-i64:64-i128:128-f80:128-n8:16:32:64-S128"
target triple = "x86_64-pc-linux-gnu"

@H5P_CLS_LINK_ACCESS_ID_g = external global i64, align 8
@H5_libinit_g = external global i8, align 1
@H5_libterm_g = external global i8, align 1
@.str.1 = private unnamed_addr constant [101 x i8] c"generated/home/dtcxzyw/WorkSpace/Projects/compilers/llvm-opt-benchmark/bench/hdf5/hdf5/src/H5Plapl.c\00", align 1
@H5E_FUNC_g = external global i64, align 8
@H5E_CANTINIT_g = external global i64, align 8
@.str.2 = private unnamed_addr constant [30 x i8] c"library initialization failed\00", align 1
@H5E_CANTSET_g = external global i64, align 8
@.str.3 = private unnamed_addr constant [22 x i8] c"can't set API context\00", align 1
@H5E_ID_g = external global i64, align 8
@H5E_BADID_g = external global i64, align 8
@.str.5 = private unnamed_addr constant [25 x i8] c"can't find object for ID\00", align 1
@H5E_PLIST_g = external global i64, align 8
@H5E_CANTGET_g = external global i64, align 8
@.str.10 = private unnamed_addr constant [21 x i8] c"external link prefix\00", align 1
@__func__.H5Pget_elink_prefix = private unnamed_addr constant [20 x i8] c"H5Pget_elink_prefix\00", align 1
@.str.12 = private unnamed_addr constant [31 x i8] c"can't get external link prefix\00", align 1

; Function Attrs: nounwind uwtable
define i64 @H5Pget_elink_prefix(i64 noundef %0, ptr noundef %1, i64 noundef %2) #0 {
  %4 = alloca i64, align 8
  %5 = alloca ptr, align 8
  %6 = alloca i64, align 8
  %7 = alloca ptr, align 8
  %8 = alloca ptr, align 8
  %9 = alloca i64, align 8
  %10 = alloca i64, align 8
  %11 = alloca i8, align 1
  %12 = alloca i8, align 1
  store i64 %0, ptr %4, align 8
  store ptr %1, ptr %5, align 8
  store i64 %2, ptr %6, align 8
  store i8 0, ptr %11, align 1
  store i8 0, ptr %12, align 1
  %13 = load i8, ptr @H5_libinit_g, align 1
  %14 = trunc i8 %13 to i1
  br i1 %14, label %19, label %15

15:                                               ; preds = %3
  %16 = load i8, ptr @H5_libterm_g, align 1
  %17 = trunc i8 %16 to i1
  %18 = xor i1 %17, true
  br label %19

19:                                               ; preds = %15, %3
  %20 = phi i1 [ false, %3 ], [ %18, %15 ]
  %21 = xor i1 %20, true
  %22 = xor i1 %21, true
  %23 = zext i1 %22 to i32
  %24 = sext i32 %23 to i64
  %25 = icmp ne i64 %24, 0
  br i1 %25, label %26, label %50

26:                                               ; preds = %19
  %27 = call i32 @H5_init_library()
  %28 = icmp slt i32 %27, 0
  %29 = xor i1 %28, true
  %30 = xor i1 %29, true
  %31 = zext i1 %30 to i32
  %32 = sext i32 %31 to i64
  %33 = icmp ne i64 %32, 0
  br i1 %33, label %34, label %49

34:                                               ; preds = %26
  br label %35

35:                                               ; preds = %34
  br label %36

36:                                               ; preds = %35
  br label %37

37:                                               ; preds = %36
  %38 = load i64, ptr @H5E_FUNC_g, align 8
  %39 = load i64, ptr @H5E_CANTINIT_g, align 8
  %40 = call i32 (ptr, ptr, i32, i64, i64, ptr, ...) @H5E_printf_stack(ptr noundef @.str.1, ptr noundef @__func__.H5Pget_elink_prefix, i32 noundef 963, i64 noundef %38, i64 noundef %39, ptr noundef @.str.2)
  br label %41

41:                                               ; preds = %37
  store i8 1, ptr %12, align 1
  %42 = load i8, ptr %12, align 1
  %43 = trunc i8 %42 to i1
  %44 = zext i1 %43 to i8
  store i8 %44, ptr %12, align 1
  br label %45

45:                                               ; preds = %41
  br label %46

46:                                               ; preds = %45
  store i64 -1, ptr %10, align 8
  br label %140

47:                                               ; No predecessors!
  br label %48

48:                                               ; preds = %47
  br label %49

49:                                               ; preds = %48, %26
  br label %50

50:                                               ; preds = %49, %19
  %51 = call i32 @H5CX_push()
  %52 = icmp slt i32 %51, 0
  %53 = xor i1 %52, true
  %54 = xor i1 %53, true
  %55 = zext i1 %54 to i32
  %56 = sext i32 %55 to i64
  %57 = icmp ne i64 %56, 0
  br i1 %57, label %58, label %73

58:                                               ; preds = %50
  br label %59

59:                                               ; preds = %58
  br label %60

60:                                               ; preds = %59
  br label %61

61:                                               ; preds = %60
  %62 = load i64, ptr @H5E_FUNC_g, align 8
  %63 = load i64, ptr @H5E_CANTSET_g, align 8
  %64 = call i32 (ptr, ptr, i32, i64, i64, ptr, ...) @H5E_printf_stack(ptr noundef @.str.1, ptr noundef @__func__.H5Pget_elink_prefix, i32 noundef 963, i64 noundef %62, i64 noundef %63, ptr noundef @.str.3)
  br label %65

65:                                               ; preds = %61
  store i8 1, ptr %12, align 1
  %66 = load i8, ptr %12, align 1
  %67 = trunc i8 %66 to i1
  %68 = zext i1 %67 to i8
  store i8 %68, ptr %12, align 1
  br label %69

69:                                               ; preds = %65
  br label %70

70:                                               ; preds = %69
  store i64 -1, ptr %10, align 8
  br label %140

71:                                               ; No predecessors!
  br label %72

72:                                               ; preds = %71
  br label %74

73:                                               ; preds = %50
  store i8 1, ptr %11, align 1
  br label %74

74:                                               ; preds = %73, %72
  %75 = call i32 @H5E_clear_stack()
  %76 = load i64, ptr %4, align 8
  %77 = load i64, ptr @H5P_CLS_LINK_ACCESS_ID_g, align 8
  %78 = call ptr @H5P_object_verify(i64 noundef %76, i64 noundef %77)
  store ptr %78, ptr %7, align 8
  %79 = icmp eq ptr null, %78
  br i1 %79, label %80, label %95

80:                                               ; preds = %74
  br label %81

81:                                               ; preds = %80
  br label %82

82:                                               ; preds = %81
  br label %83

83:                                               ; preds = %82
  %84 = load i64, ptr @H5E_ID_g, align 8
  %85 = load i64, ptr @H5E_BADID_g, align 8
  %86 = call i32 (ptr, ptr, i32, i64, i64, ptr, ...) @H5E_printf_stack(ptr noundef @.str.1, ptr noundef @__func__.H5Pget_elink_prefix, i32 noundef 967, i64 noundef %84, i64 noundef %85, ptr noundef @.str.5)
  br label %87

87:                                               ; preds = %83
  store i8 1, ptr %12, align 1
  %88 = load i8, ptr %12, align 1
  %89 = trunc i8 %88 to i1
  %90 = zext i1 %89 to i8
  store i8 %90, ptr %12, align 1
  br label %91

91:                                               ; preds = %87
  br label %92

92:                                               ; preds = %91
  store i64 -1, ptr %10, align 8
  br label %140

93:                                               ; No predecessors!
  br label %94

94:                                               ; preds = %93
  br label %95

95:                                               ; preds = %94, %74
  %96 = load ptr, ptr %7, align 8
  %97 = call i32 @H5P_peek(ptr noundef %96, ptr noundef @.str.10, ptr noundef %8)
  %98 = icmp slt i32 %97, 0
  br i1 %98, label %99, label %114

99:                                               ; preds = %95
  br label %100

100:                                              ; preds = %99
  br label %101

101:                                              ; preds = %100
  br label %102

102:                                              ; preds = %101
  %103 = load i64, ptr @H5E_PLIST_g, align 8
  %104 = load i64, ptr @H5E_CANTGET_g, align 8
  %105 = call i32 (ptr, ptr, i32, i64, i64, ptr, ...) @H5E_printf_stack(ptr noundef @.str.1, ptr noundef @__func__.H5Pget_elink_prefix, i32 noundef 971, i64 noundef %103, i64 noundef %104, ptr noundef @.str.12)
  br label %106

106:                                              ; preds = %102
  store i8 1, ptr %12, align 1
  %107 = load i8, ptr %12, align 1
  %108 = trunc i8 %107 to i1
  %109 = zext i1 %108 to i8
  store i8 %109, ptr %12, align 1
  br label %110

110:                                              ; preds = %106
  br label %111

111:                                              ; preds = %110
  store i64 -1, ptr %10, align 8
  br label %140

112:                                              ; No predecessors!
  br label %113

113:                                              ; preds = %112
  br label %114

114:                                              ; preds = %113, %95
  %115 = load ptr, ptr %8, align 8
  %116 = icmp ne ptr %115, null
  br i1 %116, label %117, label %137

117:                                              ; preds = %114
  %118 = load ptr, ptr %8, align 8
  %119 = call i64 @strlen(ptr noundef %118) #6
  store i64 %119, ptr %9, align 8
  %120 = load ptr, ptr %5, align 8
  %121 = icmp ne ptr %120, null
  br i1 %121, label %122, label %136

122:                                              ; preds = %117
  %123 = load ptr, ptr %5, align 8
  %124 = load ptr, ptr %8, align 8
  %125 = load i64, ptr %6, align 8
  %126 = call ptr @strncpy(ptr noundef %123, ptr noundef %124, i64 noundef %125) #7
  %127 = load i64, ptr %9, align 8
  %128 = load i64, ptr %6, align 8
  %129 = icmp uge i64 %127, %128
  br i1 %129, label %130, label %135

130:                                              ; preds = %122
  %131 = load ptr, ptr %5, align 8
  %132 = load i64, ptr %6, align 8
  %133 = sub i64 %132, 1
  %134 = getelementptr inbounds i8, ptr %131, i64 %133
  store i8 0, ptr %134, align 1
  br label %135

135:                                              ; preds = %130, %122
  br label %136

136:                                              ; preds = %135, %117
  br label %138

137:                                              ; preds = %114
  store i64 0, ptr %9, align 8
  br label %138

138:                                              ; preds = %137, %136
  %139 = load i64, ptr %9, align 8
  store i64 %139, ptr %10, align 8
  br label %140

140:                                              ; preds = %138, %111, %92, %70, %46
  %141 = load i8, ptr %11, align 1
  %142 = trunc i8 %141 to i1
  %143 = xor i1 %142, true
  %144 = xor i1 %143, true
  %145 = zext i1 %144 to i32
  %146 = sext i32 %145 to i64
  %147 = icmp ne i64 %146, 0
  br i1 %147, label %148, label %150

148:                                              ; preds = %140
  %149 = call i32 @H5CX_pop(i1 noundef zeroext true)
  store i8 0, ptr %11, align 1
  br label %150

150:                                              ; preds = %148, %140
  %151 = load i8, ptr %12, align 1
  %152 = trunc i8 %151 to i1
  %153 = xor i1 %152, true
  %154 = xor i1 %153, true
  %155 = zext i1 %154 to i32
  %156 = sext i32 %155 to i64
  %157 = icmp ne i64 %156, 0
  br i1 %157, label %158, label %160

158:                                              ; preds = %150
  %159 = call i32 @H5E_dump_api_stack()
  br label %160

160:                                              ; preds = %158, %150
  %161 = load i64, ptr %10, align 8
  ret i64 %161
}