; Function Attrs: nounwind uwtable
define i64 @H5Pget_elink_prefix(i64 noundef %0, ptr noundef %1, i64 noundef %2) local_unnamed_addr #0 {
  %4 = alloca ptr, align 8
  %5 = load i8, ptr @H5_libinit_g, align 1
  %6 = trunc i8 %5 to i1
  %7 = load i8, ptr @H5_libterm_g, align 1
  %8 = trunc i8 %7 to i1
  %9 = select i1 %6, i1 true, i1 %8
  br i1 %9, label %17, label %10

10:                                               ; preds = %3
  %11 = tail call i32 @H5_init_library() #8
  %12 = icmp slt i32 %11, 0
  br i1 %12, label %13, label %17

13:                                               ; preds = %10
  %14 = load i64, ptr @H5E_FUNC_g, align 8
  %15 = load i64, ptr @H5E_CANTINIT_g, align 8
  %16 = tail call i32 (ptr, ptr, i32, i64, i64, ptr, ...) @H5E_printf_stack(ptr noundef nonnull @.str.1, ptr noundef nonnull @__func__.H5Pget_elink_prefix, i32 noundef 963, i64 noundef %14, i64 noundef %15, ptr noundef nonnull @.str.2) #8
  br label %.thread34

17:                                               ; preds = %10, %3
  %18 = tail call i32 @H5CX_push() #8
  %19 = icmp slt i32 %18, 0
  br i1 %19, label %20, label %24

20:                                               ; preds = %17
  %21 = load i64, ptr @H5E_FUNC_g, align 8
  %22 = load i64, ptr @H5E_CANTSET_g, align 8
  %23 = tail call i32 (ptr, ptr, i32, i64, i64, ptr, ...) @H5E_printf_stack(ptr noundef nonnull @.str.1, ptr noundef nonnull @__func__.H5Pget_elink_prefix, i32 noundef 963, i64 noundef %21, i64 noundef %22, ptr noundef nonnull @.str.3) #8
  br label %.thread34

24:                                               ; preds = %17
  %25 = tail call i32 @H5E_clear_stack() #8
  %26 = load i64, ptr @H5P_CLS_LINK_ACCESS_ID_g, align 8
  %27 = tail call ptr @H5P_object_verify(i64 noundef %0, i64 noundef %26) #8
  %28 = icmp eq ptr %27, null
  br i1 %28, label %29, label %33

29:                                               ; preds = %24
  %30 = load i64, ptr @H5E_ID_g, align 8
  %31 = load i64, ptr @H5E_BADID_g, align 8
  %32 = tail call i32 (ptr, ptr, i32, i64, i64, ptr, ...) @H5E_printf_stack(ptr noundef nonnull @.str.1, ptr noundef nonnull @__func__.H5Pget_elink_prefix, i32 noundef 967, i64 noundef %30, i64 noundef %31, ptr noundef nonnull @.str.5) #8
  br label %50

33:                                               ; preds = %24
  %34 = call i32 @H5P_peek(ptr noundef nonnull %27, ptr noundef nonnull @.str.10, ptr noundef nonnull %4) #8
  %35 = icmp slt i32 %34, 0
  br i1 %35, label %36, label %40

36:                                               ; preds = %33
  %37 = load i64, ptr @H5E_PLIST_g, align 8
  %38 = load i64, ptr @H5E_CANTGET_g, align 8
  %39 = call i32 (ptr, ptr, i32, i64, i64, ptr, ...) @H5E_printf_stack(ptr noundef nonnull @.str.1, ptr noundef nonnull @__func__.H5Pget_elink_prefix, i32 noundef 971, i64 noundef %37, i64 noundef %38, ptr noundef nonnull @.str.12) #8
  br label %50

40:                                               ; preds = %33
  %41 = load ptr, ptr %4, align 8
  %.not = icmp eq ptr %41, null
  br i1 %.not, label %.thread40, label %42

42:                                               ; preds = %40
  %43 = call i64 @strlen(ptr noundef nonnull dereferenceable(1) %41) #9
  %.not24 = icmp eq ptr %1, null
  br i1 %.not24, label %.thread40, label %44

44:                                               ; preds = %42
  %45 = call ptr @strncpy(ptr noundef nonnull %1, ptr noundef nonnull %41, i64 noundef %2) #8
  %.not25 = icmp ult i64 %43, %2
  br i1 %.not25, label %.thread40, label %46

46:                                               ; preds = %44
  %47 = getelementptr i8, ptr %1, i64 %2
  %48 = getelementptr i8, ptr %47, i64 -1
  store i8 0, ptr %48, align 1
  br label %.thread40

.thread40:                                        ; preds = %44, %46, %42, %40
  %.017.ph.ph = phi i64 [ %43, %46 ], [ %43, %44 ], [ %43, %42 ], [ 0, %40 ]
  %49 = call i32 @H5CX_pop(i1 noundef zeroext true) #8
  br label %53

50:                                               ; preds = %36, %29
  %51 = call i32 @H5CX_pop(i1 noundef zeroext true) #8
  br label %.thread34

.thread34:                                        ; preds = %20, %13, %50
  %52 = call i32 @H5E_dump_api_stack() #8
  br label %53

53:                                               ; preds = %.thread40, %.thread34
  %.0172937 = phi i64 [ -1, %.thread34 ], [ %.017.ph.ph, %.thread40 ]
  ret i64 %.0172937
}